; Function Attrs: nounwind uwtable
define dso_local ptr @SearchSysCacheList(i32 noundef %0, i32 noundef %1, i64 noundef %2, i64 noundef %3, i64 noundef %4) local_unnamed_addr #0 {
  %or.cond = icmp ugt i32 %0, 84
  br i1 %or.cond, label %10, label %6

6:                                                ; preds = %5
  %7 = zext nneg i32 %0 to i64
  %8 = getelementptr inbounds nuw [85 x ptr], ptr @SysCache, i64 0, i64 %7
  %9 = load ptr, ptr %8, align 8
  %.not = icmp eq ptr %9, null
  br i1 %.not, label %10, label %13

10:                                               ; preds = %6, %5
  %11 = tail call zeroext i1 @errstart_cold(i32 noundef 21, ptr noundef null) #12
  tail call void @llvm.assume(i1 %11)
  %12 = tail call i32 (ptr, ...) @errmsg_internal(ptr noundef nonnull @.str.2, i32 noundef %0) #11
  tail call void @errfinish(ptr noundef nonnull @.str.1, i32 noundef 683, ptr noundef nonnull @__func__.SearchSysCacheList) #11
  unreachable

13:                                               ; preds = %6
  %14 = tail call ptr @SearchCatCacheList(ptr noundef nonnull %9, i32 noundef %1, i64 noundef %2, i64 noundef %3, i64 noundef %4) #11
  ret ptr %14
}